target datalayout = "e-m:e-p270:32:32-p271:32:32-p272:64:64-i64:64-i128:128-f80:128-n8:16:32:64-S128"
target triple = "x86_64-pc-linux-gnu"

%"struct.Luau::CodeGen::IrOp" = type { i32 }

; Function Attrs: mustprogress uwtable
define dso_local void @_ZN4Luau7CodeGen17translateInstMoveERNS0_9IrBuilderEPKj(ptr noundef nonnull align 8 dereferenceable(752) %0, ptr noundef %1) #0 {
  %3 = alloca ptr, align 8
  %4 = alloca ptr, align 8
  %5 = alloca i32, align 4
  %6 = alloca i32, align 4
  %7 = alloca %"struct.Luau::CodeGen::IrOp", align 4
  %8 = alloca %"struct.Luau::CodeGen::IrOp", align 4
  %9 = alloca %"struct.Luau::CodeGen::IrOp", align 4
  %10 = alloca %"struct.Luau::CodeGen::IrOp", align 4
  %11 = alloca %"struct.Luau::CodeGen::IrOp", align 4
  store ptr %0, ptr %3, align 8, !tbaa !4
  store ptr %1, ptr %4, align 8, !tbaa !9
  call void @llvm.lifetime.start.p0(i64 4, ptr %5) #13
  %12 = load ptr, ptr %4, align 8, !tbaa !9
  %13 = load i32, ptr %12, align 4, !tbaa !11
  %14 = lshr i32 %13, 8
  %15 = and i32 %14, 255
  store i32 %15, ptr %5, align 4, !tbaa !11
  call void @llvm.lifetime.start.p0(i64 4, ptr %6) #13
  %16 = load ptr, ptr %4, align 8, !tbaa !9
  %17 = load i32, ptr %16, align 4, !tbaa !11
  %18 = lshr i32 %17, 16
  %19 = and i32 %18, 255
  store i32 %19, ptr %6, align 4, !tbaa !11
  call void @llvm.lifetime.start.p0(i64 4, ptr %7) #13
  %20 = load ptr, ptr %3, align 8, !tbaa !4
  %21 = load ptr, ptr %3, align 8, !tbaa !4
  %22 = load i32, ptr %6, align 4, !tbaa !11
  %23 = trunc i32 %22 to i8
  %24 = call i32 @_ZN4Luau7CodeGen9IrBuilder5vmRegEh(ptr noundef nonnull align 8 dereferenceable(752) %21, i8 noundef zeroext %23)
  %25 = getelementptr inbounds nuw %"struct.Luau::CodeGen::IrOp", ptr %8, i32 0, i32 0
  store i32 %24, ptr %25, align 4
  %26 = getelementptr inbounds nuw %"struct.Luau::CodeGen::IrOp", ptr %8, i32 0, i32 0
  %27 = load i32, ptr %26, align 4
  %28 = call i32 @_ZN4Luau7CodeGen9IrBuilder4instENS0_5IrCmdENS0_4IrOpE(ptr noundef nonnull align 8 dereferenceable(752) %20, i8 noundef zeroext 6, i32 %27)
  %29 = getelementptr inbounds nuw %"struct.Luau::CodeGen::IrOp", ptr %7, i32 0, i32 0
  store i32 %28, ptr %29, align 4
  %30 = load ptr, ptr %3, align 8, !tbaa !4
  %31 = load ptr, ptr %3, align 8, !tbaa !4
  %32 = load i32, ptr %5, align 4, !tbaa !11
  %33 = trunc i32 %32 to i8
  %34 = call i32 @_ZN4Luau7CodeGen9IrBuilder5vmRegEh(ptr noundef nonnull align 8 dereferenceable(752) %31, i8 noundef zeroext %33)
  %35 = getelementptr inbounds nuw %"struct.Luau::CodeGen::IrOp", ptr %9, i32 0, i32 0
  store i32 %34, ptr %35, align 4
  call void @llvm.memcpy.p0.p0.i64(ptr align 4 %10, ptr align 4 %7, i64 4, i1 false), !tbaa.struct !112
  %36 = getelementptr inbounds nuw %"struct.Luau::CodeGen::IrOp", ptr %9, i32 0, i32 0
  %37 = load i32, ptr %36, align 4
  %38 = getelementptr inbounds nuw %"struct.Luau::CodeGen::IrOp", ptr %10, i32 0, i32 0
  %39 = load i32, ptr %38, align 4
  %40 = call i32 @_ZN4Luau7CodeGen9IrBuilder4instENS0_5IrCmdENS0_4IrOpES3_(ptr noundef nonnull align 8 dereferenceable(752) %30, i8 noundef zeroext 18, i32 %37, i32 %39)
  %41 = getelementptr inbounds nuw %"struct.Luau::CodeGen::IrOp", ptr %11, i32 0, i32 0
  store i32 %40, ptr %41, align 4
  call void @llvm.lifetime.end.p0(i64 4, ptr %7) #13
  call void @llvm.lifetime.end.p0(i64 4, ptr %6) #13
  call void @llvm.lifetime.end.p0(i64 4, ptr %5) #13
  ret void
}