; Function Attrs: mustprogress uwtable
define dso_local void @_ZN4Luau7CodeGen17translateInstMoveERNS0_9IrBuilderEPKj(ptr noundef nonnull align 8 dereferenceable(752) %0, ptr noundef readonly captures(none) %1) local_unnamed_addr #0 {
  %3 = load i32, ptr %1, align 4, !tbaa !4
  %4 = lshr i32 %3, 8
  %5 = lshr i32 %3, 16
  %6 = trunc i32 %5 to i8
  %7 = tail call i32 @_ZN4Luau7CodeGen9IrBuilder5vmRegEh(ptr noundef nonnull align 8 dereferenceable(752) %0, i8 noundef zeroext %6)
  %8 = tail call i32 @_ZN4Luau7CodeGen9IrBuilder4instENS0_5IrCmdENS0_4IrOpE(ptr noundef nonnull align 8 dereferenceable(752) %0, i8 noundef zeroext 6, i32 %7)
  %9 = trunc i32 %4 to i8
  %10 = tail call i32 @_ZN4Luau7CodeGen9IrBuilder5vmRegEh(ptr noundef nonnull align 8 dereferenceable(752) %0, i8 noundef zeroext %9)
  %11 = tail call i32 @_ZN4Luau7CodeGen9IrBuilder4instENS0_5IrCmdENS0_4IrOpES3_(ptr noundef nonnull align 8 dereferenceable(752) %0, i8 noundef zeroext 18, i32 %10, i32 %8)
  ret void
}